; Function Attrs: nounwind uwtable
define void @UnloadFontData(ptr noundef captures(address_is_null) %0, i32 noundef %1) local_unnamed_addr #10 {
  %.not = icmp eq ptr %0, null
  br i1 %.not, label %5, label %.preheader

.preheader:                                       ; preds = %2
  %3 = icmp sgt i32 %1, 0
  br i1 %3, label %.lr.ph.preheader, label %._crit_edge

.lr.ph.preheader:                                 ; preds = %.preheader
  %wide.trip.count = zext nneg i32 %1 to i64
  br label %.lr.ph

._crit_edge:                                      ; preds = %.lr.ph, %.preheader
  tail call void @free(ptr noundef nonnull %0) #41
  br label %5

.lr.ph:                                           ; preds = %.lr.ph.preheader, %.lr.ph
  %indvars.iv = phi i64 [ 0, %.lr.ph.preheader ], [ %indvars.iv.next, %.lr.ph ]
  %4 = getelementptr inbounds nuw %struct.GlyphInfo, ptr %0, i64 %indvars.iv, i32 4
  tail call void @UnloadImage(ptr noundef nonnull byval(%struct.Image) align 8 %4) #41
  %indvars.iv.next = add nuw nsw i64 %indvars.iv, 1
  %exitcond.not = icmp eq i64 %indvars.iv.next, %wide.trip.count
  br i1 %exitcond.not, label %._crit_edge, label %.lr.ph

5:                                                ; preds = %._crit_edge, %2
  ret void
}